target datalayout = "e-m:e-p270:32:32-p271:32:32-p272:64:64-i64:64-i128:128-f80:128-n8:16:32:64-S128"
target triple = "x86_64-pc-linux-gnu"

%struct.rb_data_type_struct = type { ptr, %struct.anon, ptr, ptr, i64 }
%struct.anon = type { ptr, ptr, ptr, ptr, [1 x ptr] }

@ossl_bn_type = internal constant %struct.rb_data_type_struct { ptr @.str.62, %struct.anon { ptr null, ptr @ossl_bn_free, ptr null, ptr null, [1 x ptr] zeroinitializer }, ptr null, ptr null, i64 289 }, align 8
@eBNError = internal global i64 0, align 8
@rb_eRuntimeError = external global i64, align 8
@.str = private unnamed_addr constant [23 x i8] c"BN wasn't initialized!\00", align 1
@.str.69 = private unnamed_addr constant [10 x i8] c"BN_bn2bin\00", align 1

; Function Attrs: inlinehint nounwind sspstrong willreturn memory(none) uwtable
define internal i64 @RB_INT2FIX(i64 noundef %0) #4 {
  %2 = alloca i64, align 8
  %3 = alloca i64, align 8
  %4 = alloca i64, align 8
  %5 = alloca i64, align 8
  %6 = alloca i64, align 8
  %7 = alloca i64, align 8
  store i64 %0, ptr %2, align 8, !tbaa !11
  call void @llvm.lifetime.start.p0(i64 8, ptr %3) #20
  %8 = load i64, ptr %2, align 8, !tbaa !11
  store i64 %8, ptr %3, align 8, !tbaa !11
  call void @llvm.lifetime.start.p0(i64 8, ptr %4) #20
  %9 = load i64, ptr %3, align 8, !tbaa !11
  %10 = shl i64 %9, 1
  %11 = add i64 %10, 1
  store i64 %11, ptr %4, align 8, !tbaa !11
  call void @llvm.lifetime.start.p0(i64 8, ptr %5) #20
  %12 = load i64, ptr %4, align 8, !tbaa !11
  store i64 %12, ptr %5, align 8, !tbaa !11
  call void @llvm.lifetime.start.p0(i64 8, ptr %6) #20
  %13 = load i64, ptr %5, align 8, !tbaa !11
  store i64 %13, ptr %6, align 8, !tbaa !11
  call void @llvm.lifetime.start.p0(i64 8, ptr %7) #20
  %14 = load i64, ptr %6, align 8, !tbaa !11
  store i64 %14, ptr %7, align 8, !tbaa !11
  %15 = load i64, ptr %7, align 8, !tbaa !11
  call void @llvm.lifetime.end.p0(i64 8, ptr %7) #20
  call void @llvm.lifetime.end.p0(i64 8, ptr %6) #20
  call void @llvm.lifetime.end.p0(i64 8, ptr %5) #20
  call void @llvm.lifetime.end.p0(i64 8, ptr %4) #20
  call void @llvm.lifetime.end.p0(i64 8, ptr %3) #20
  ret i64 %15
}

; Function Attrs: inlinehint nounwind sspstrong willreturn memory(none) uwtable
define internal i64 @RB_ST2FIX(i64 noundef %0) #4 {
  %2 = alloca i64, align 8
  %3 = alloca i64, align 8
  %4 = alloca i64, align 8
  store i64 %0, ptr %2, align 8, !tbaa !11
  call void @llvm.lifetime.start.p0(i64 8, ptr %3) #20
  %5 = load i64, ptr %2, align 8, !tbaa !11
  store i64 %5, ptr %3, align 8, !tbaa !11
  %6 = load i64, ptr %3, align 8, !tbaa !11
  %7 = icmp sge i64 %6, 0
  br i1 %7, label %8, label %11

8:                                                ; preds = %1
  %9 = load i64, ptr %3, align 8, !tbaa !11
  %10 = and i64 %9, 4611686018427387903
  store i64 %10, ptr %3, align 8, !tbaa !11
  br label %14

11:                                               ; preds = %1
  %12 = load i64, ptr %3, align 8, !tbaa !11
  %13 = or i64 %12, -4611686018427387904
  store i64 %13, ptr %3, align 8, !tbaa !11
  br label %14

14:                                               ; preds = %11, %8
  call void @llvm.lifetime.start.p0(i64 8, ptr %4) #20
  %15 = load i64, ptr %3, align 8, !tbaa !11
  store i64 %15, ptr %4, align 8, !tbaa !11
  %16 = load i64, ptr %4, align 8, !tbaa !11
  %17 = call i64 @RB_INT2FIX(i64 noundef %16) #22
  call void @llvm.lifetime.end.p0(i64 8, ptr %4) #20
  call void @llvm.lifetime.end.p0(i64 8, ptr %3) #20
  ret i64 %17
}

; Function Attrs: nounwind sspstrong uwtable
define internal i64 @ossl_bn_hash(i64 noundef %0) #0 {
  %2 = alloca i64, align 8
  %3 = alloca ptr, align 8
  %4 = alloca i64, align 8
  %5 = alloca i64, align 8
  %6 = alloca ptr, align 8
  %7 = alloca i32, align 4
  store i64 %0, ptr %2, align 8, !tbaa !11
  call void @llvm.lifetime.start.p0(i64 8, ptr %3) #20
  call void @llvm.lifetime.start.p0(i64 8, ptr %4) #20
  call void @llvm.lifetime.start.p0(i64 8, ptr %5) #20
  call void @llvm.lifetime.start.p0(i64 8, ptr %6) #20
  call void @llvm.lifetime.start.p0(i64 4, ptr %7) #20
  br label %8

8:                                                ; preds = %1
  %9 = load i64, ptr %2, align 8, !tbaa !11
  %10 = call ptr @rb_check_typeddata(i64 noundef %9, ptr noundef @ossl_bn_type)
  store ptr %10, ptr %3, align 8, !tbaa !6
  %11 = load ptr, ptr %3, align 8, !tbaa !6
  %12 = icmp ne ptr %11, null
  br i1 %12, label %15, label %13

13:                                               ; preds = %8
  %14 = load i64, ptr @rb_eRuntimeError, align 8, !tbaa !11
  call void (i64, ptr, ...) @ossl_raise(i64 noundef %14, ptr noundef @.str) #21
  unreachable

15:                                               ; preds = %8
  br label %16

16:                                               ; preds = %15
  br label %17

17:                                               ; preds = %16
  %18 = load ptr, ptr %3, align 8, !tbaa !6
  %19 = call i32 @BN_num_bits(ptr noundef %18)
  %20 = add nsw i32 %19, 7
  %21 = sdiv i32 %20, 8
  store i32 %21, ptr %7, align 4, !tbaa !23
  %22 = load i32, ptr %7, align 4, !tbaa !23
  %23 = icmp slt i32 %22, 1024
  br i1 %23, label %24, label %28

24:                                               ; preds = %17
  store i64 0, ptr %4, align 8, !tbaa !11
  %25 = load i32, ptr %7, align 4, !tbaa !23
  %26 = sext i32 %25 to i64
  %27 = alloca i8, i64 %26, align 16
  br label %32

28:                                               ; preds = %17
  %29 = load i32, ptr %7, align 4, !tbaa !23
  %30 = sext i32 %29 to i64
  %31 = call noalias nonnull ptr @rb_alloc_tmp_buffer(ptr noundef %4, i64 noundef %30) #24
  br label %32

32:                                               ; preds = %28, %24
  %33 = phi ptr [ %27, %24 ], [ %31, %28 ]
  store ptr %33, ptr %6, align 8, !tbaa !25
  %34 = load ptr, ptr %3, align 8, !tbaa !6
  %35 = load ptr, ptr %6, align 8, !tbaa !25
  %36 = call i32 @BN_bn2bin(ptr noundef %34, ptr noundef %35)
  %37 = load i32, ptr %7, align 4, !tbaa !23
  %38 = icmp ne i32 %36, %37
  br i1 %38, label %39, label %41

39:                                               ; preds = %32
  call void @rb_free_tmp_buffer(ptr noundef %4)
  %40 = load i64, ptr @eBNError, align 8, !tbaa !11
  call void (i64, ptr, ...) @ossl_raise(i64 noundef %40, ptr noundef @.str.69) #21
  unreachable

41:                                               ; preds = %32
  %42 = load ptr, ptr %6, align 8, !tbaa !25
  %43 = load i32, ptr %7, align 4, !tbaa !23
  %44 = sext i32 %43 to i64
  %45 = call i64 @rb_memhash(ptr noundef %42, i64 noundef %44)
  %46 = call i64 @RB_ST2FIX(i64 noundef %45) #22
  store i64 %46, ptr %5, align 8, !tbaa !11
  call void @rb_free_tmp_buffer(ptr noundef %4)
  %47 = load i64, ptr %5, align 8, !tbaa !11
  call void @llvm.lifetime.end.p0(i64 4, ptr %7) #20
  call void @llvm.lifetime.end.p0(i64 8, ptr %6) #20
  call void @llvm.lifetime.end.p0(i64 8, ptr %5) #20
  call void @llvm.lifetime.end.p0(i64 8, ptr %4) #20
  call void @llvm.lifetime.end.p0(i64 8, ptr %3) #20
  ret i64 %47
}