; Function Attrs: nounwind sspstrong uwtable
define internal range(i64 1, 0) i64 @ossl_bn_hash(i64 noundef %0) #0 {
  %2 = alloca i64, align 8
  call void @llvm.lifetime.start.p0(i64 8, ptr nonnull %2) #11
  %3 = tail call ptr @rb_check_typeddata(i64 noundef %0, ptr noundef nonnull @ossl_bn_type) #11
  %.not = icmp eq ptr %3, null
  br i1 %.not, label %4, label %6

4:                                                ; preds = %1
  %5 = load i64, ptr @rb_eRuntimeError, align 8, !tbaa !6
  tail call void (i64, ptr, ...) @ossl_raise(i64 noundef %5, ptr noundef nonnull @.str) #12
  unreachable

6:                                                ; preds = %1
  %7 = tail call i32 @BN_num_bits(ptr noundef nonnull %3) #11
  %8 = add nsw i32 %7, 7
  %9 = sdiv i32 %8, 8
  %10 = icmp slt i32 %7, 8185
  br i1 %10, label %11, label %14

11:                                               ; preds = %6
  store i64 0, ptr %2, align 8, !tbaa !6
  %12 = sext i32 %9 to i64
  %13 = alloca i8, i64 %12, align 16
  br label %17

14:                                               ; preds = %6
  %15 = zext nneg i32 %9 to i64
  %16 = call noalias nonnull ptr @rb_alloc_tmp_buffer(ptr noundef nonnull %2, i64 noundef %15) #14
  br label %17

17:                                               ; preds = %14, %11
  %18 = phi ptr [ %13, %11 ], [ %16, %14 ]
  %19 = call i32 @BN_bn2bin(ptr noundef nonnull %3, ptr noundef nonnull %18) #11
  %.not12 = icmp eq i32 %19, %9
  br i1 %.not12, label %22, label %20

20:                                               ; preds = %17
  call void @rb_free_tmp_buffer(ptr noundef nonnull %2) #11
  %21 = load i64, ptr @eBNError, align 8, !tbaa !6
  call void (i64, ptr, ...) @ossl_raise(i64 noundef %21, ptr noundef nonnull @.str.69) #12
  unreachable

22:                                               ; preds = %17
  %23 = sext i32 %9 to i64
  %24 = call i64 @rb_memhash(ptr noundef nonnull %18, i64 noundef %23) #11
  %25 = and i64 %24, 4611686018427387903
  %26 = icmp slt i64 %24, 0
  %masksel.i = select i1 %26, i64 -4611686018427387904, i64 0
  %.0.i = or disjoint i64 %masksel.i, %25
  %27 = shl nsw i64 %.0.i, 1
  %28 = or disjoint i64 %27, 1
  call void @rb_free_tmp_buffer(ptr noundef nonnull %2) #11
  call void @llvm.lifetime.end.p0(i64 8, ptr nonnull %2) #11
  ret i64 %28
}